target datalayout = "e-m:e-p270:32:32-p271:32:32-p272:64:64-i64:64-i128:128-f80:128-n8:16:32:64-S128"
target triple = "x86_64-pc-linux-gnu"

%struct.md5_state_s = type { [2 x i32], [4 x i32], [64 x i8] }

; Function Attrs: alwaysinline nounwind
define internal ptr @memcpy.inline(ptr noalias nonnull %0, ptr noalias nonnull %1, i64 %2) #2 {
  %4 = alloca ptr, align 8
  %5 = alloca ptr, align 8
  %6 = alloca i64, align 8
  store ptr %0, ptr %4, align 8, !tbaa !19
  store ptr %1, ptr %5, align 8, !tbaa !19
  store i64 %2, ptr %6, align 8, !tbaa !15
  %7 = load ptr, ptr %4, align 8, !tbaa !19
  %8 = load ptr, ptr %5, align 8, !tbaa !19
  %9 = load i64, ptr %6, align 8, !tbaa !15
  %10 = load ptr, ptr %4, align 8, !tbaa !19
  %11 = call i64 @llvm.objectsize.i64.p0(ptr %10, i1 false, i1 true, i1 false)
  %12 = call ptr @__memcpy_chk(ptr noundef %7, ptr noundef %8, i64 noundef %9, i64 noundef %11) #5
  ret ptr %12
}

; Function Attrs: nounwind sspstrong uwtable
define void @rb_Digest_MD5_Update(ptr noundef %0, ptr noundef %1, i64 noundef %2) #0 {
  %4 = alloca ptr, align 8
  %5 = alloca ptr, align 8
  %6 = alloca i64, align 8
  %7 = alloca ptr, align 8
  %8 = alloca i64, align 8
  %9 = alloca i64, align 8
  %10 = alloca i32, align 4
  %11 = alloca i32, align 4
  %12 = alloca i64, align 8
  store ptr %0, ptr %4, align 8, !tbaa !6
  store ptr %1, ptr %5, align 8, !tbaa !13
  store i64 %2, ptr %6, align 8, !tbaa !15
  call void @llvm.lifetime.start.p0(i64 8, ptr %7) #5
  %13 = load ptr, ptr %5, align 8, !tbaa !13
  store ptr %13, ptr %7, align 8, !tbaa !13
  call void @llvm.lifetime.start.p0(i64 8, ptr %8) #5
  %14 = load i64, ptr %6, align 8, !tbaa !15
  store i64 %14, ptr %8, align 8, !tbaa !15
  call void @llvm.lifetime.start.p0(i64 8, ptr %9) #5
  %15 = load ptr, ptr %4, align 8, !tbaa !6
  %16 = getelementptr inbounds nuw %struct.md5_state_s, ptr %15, i32 0, i32 0
  %17 = getelementptr inbounds [2 x i32], ptr %16, i64 0, i64 0
  %18 = load i32, ptr %17, align 4, !tbaa !11
  %19 = lshr i32 %18, 3
  %20 = and i32 %19, 63
  %21 = zext i32 %20 to i64
  store i64 %21, ptr %9, align 8, !tbaa !15
  call void @llvm.lifetime.start.p0(i64 4, ptr %10) #5
  %22 = load i64, ptr %6, align 8, !tbaa !15
  %23 = shl i64 %22, 3
  %24 = trunc i64 %23 to i32
  store i32 %24, ptr %10, align 4, !tbaa !11
  %25 = load i64, ptr %6, align 8, !tbaa !15
  %26 = icmp eq i64 %25, 0
  br i1 %26, label %27, label %28

27:                                               ; preds = %3
  store i32 1, ptr %11, align 4
  br label %121

28:                                               ; preds = %3
  %29 = load i64, ptr %6, align 8, !tbaa !15
  %30 = lshr i64 %29, 29
  %31 = load ptr, ptr %4, align 8, !tbaa !6
  %32 = getelementptr inbounds nuw %struct.md5_state_s, ptr %31, i32 0, i32 0
  %33 = getelementptr inbounds [2 x i32], ptr %32, i64 0, i64 1
  %34 = load i32, ptr %33, align 4, !tbaa !11
  %35 = zext i32 %34 to i64
  %36 = add i64 %35, %30
  %37 = trunc i64 %36 to i32
  store i32 %37, ptr %33, align 4, !tbaa !11
  %38 = load i32, ptr %10, align 4, !tbaa !11
  %39 = load ptr, ptr %4, align 8, !tbaa !6
  %40 = getelementptr inbounds nuw %struct.md5_state_s, ptr %39, i32 0, i32 0
  %41 = getelementptr inbounds [2 x i32], ptr %40, i64 0, i64 0
  %42 = load i32, ptr %41, align 4, !tbaa !11
  %43 = add i32 %42, %38
  store i32 %43, ptr %41, align 4, !tbaa !11
  %44 = load ptr, ptr %4, align 8, !tbaa !6
  %45 = getelementptr inbounds nuw %struct.md5_state_s, ptr %44, i32 0, i32 0
  %46 = getelementptr inbounds [2 x i32], ptr %45, i64 0, i64 0
  %47 = load i32, ptr %46, align 4, !tbaa !11
  %48 = load i32, ptr %10, align 4, !tbaa !11
  %49 = icmp ult i32 %47, %48
  br i1 %49, label %50, label %56

50:                                               ; preds = %28
  %51 = load ptr, ptr %4, align 8, !tbaa !6
  %52 = getelementptr inbounds nuw %struct.md5_state_s, ptr %51, i32 0, i32 0
  %53 = getelementptr inbounds [2 x i32], ptr %52, i64 0, i64 1
  %54 = load i32, ptr %53, align 4, !tbaa !11
  %55 = add i32 %54, 1
  store i32 %55, ptr %53, align 4, !tbaa !11
  br label %56

56:                                               ; preds = %50, %28
  %57 = load i64, ptr %9, align 8, !tbaa !15
  %58 = icmp ne i64 %57, 0
  br i1 %58, label %59, label %98

59:                                               ; preds = %56
  call void @llvm.lifetime.start.p0(i64 8, ptr %12) #5
  %60 = load i64, ptr %9, align 8, !tbaa !15
  %61 = load i64, ptr %6, align 8, !tbaa !15
  %62 = add i64 %60, %61
  %63 = icmp ugt i64 %62, 64
  br i1 %63, label %64, label %67

64:                                               ; preds = %59
  %65 = load i64, ptr %9, align 8, !tbaa !15
  %66 = sub i64 64, %65
  br label %69

67:                                               ; preds = %59
  %68 = load i64, ptr %6, align 8, !tbaa !15
  br label %69

69:                                               ; preds = %67, %64
  %70 = phi i64 [ %66, %64 ], [ %68, %67 ]
  store i64 %70, ptr %12, align 8, !tbaa !15
  %71 = load ptr, ptr %4, align 8, !tbaa !6
  %72 = getelementptr inbounds nuw %struct.md5_state_s, ptr %71, i32 0, i32 2
  %73 = getelementptr inbounds [64 x i8], ptr %72, i64 0, i64 0
  %74 = load i64, ptr %9, align 8, !tbaa !15
  %75 = getelementptr inbounds nuw i8, ptr %73, i64 %74
  %76 = load ptr, ptr %7, align 8, !tbaa !13
  %77 = load i64, ptr %12, align 8, !tbaa !15
  %78 = call ptr @memcpy.inline(ptr noundef %75, ptr noundef %76, i64 noundef %77) #5
  %79 = load i64, ptr %9, align 8, !tbaa !15
  %80 = load i64, ptr %12, align 8, !tbaa !15
  %81 = add i64 %79, %80
  %82 = icmp ult i64 %81, 64
  br i1 %82, label %83, label %84

83:                                               ; preds = %69
  store i32 1, ptr %11, align 4
  br label %95

84:                                               ; preds = %69
  %85 = load i64, ptr %12, align 8, !tbaa !15
  %86 = load ptr, ptr %7, align 8, !tbaa !13
  %87 = getelementptr inbounds nuw i8, ptr %86, i64 %85
  store ptr %87, ptr %7, align 8, !tbaa !13
  %88 = load i64, ptr %12, align 8, !tbaa !15
  %89 = load i64, ptr %8, align 8, !tbaa !15
  %90 = sub i64 %89, %88
  store i64 %90, ptr %8, align 8, !tbaa !15
  %91 = load ptr, ptr %4, align 8, !tbaa !6
  %92 = load ptr, ptr %4, align 8, !tbaa !6
  %93 = getelementptr inbounds nuw %struct.md5_state_s, ptr %92, i32 0, i32 2
  %94 = getelementptr inbounds [64 x i8], ptr %93, i64 0, i64 0
  call void @md5_process(ptr noundef %91, ptr noundef %94)
  store i32 0, ptr %11, align 4
  br label %95

95:                                               ; preds = %84, %83
  call void @llvm.lifetime.end.p0(i64 8, ptr %12) #5
  %96 = load i32, ptr %11, align 4
  switch i32 %96, label %121 [
    i32 0, label %97
  ]

97:                                               ; preds = %95
  br label %98

98:                                               ; preds = %97, %56
  br label %99

99:                                               ; preds = %105, %98
  %100 = load i64, ptr %8, align 8, !tbaa !15
  %101 = icmp uge i64 %100, 64
  br i1 %101, label %102, label %110

102:                                              ; preds = %99
  %103 = load ptr, ptr %4, align 8, !tbaa !6
  %104 = load ptr, ptr %7, align 8, !tbaa !13
  call void @md5_process(ptr noundef %103, ptr noundef %104)
  br label %105

105:                                              ; preds = %102
  %106 = load ptr, ptr %7, align 8, !tbaa !13
  %107 = getelementptr inbounds i8, ptr %106, i64 64
  store ptr %107, ptr %7, align 8, !tbaa !13
  %108 = load i64, ptr %8, align 8, !tbaa !15
  %109 = sub i64 %108, 64
  store i64 %109, ptr %8, align 8, !tbaa !15
  br label %99, !llvm.loop !17

110:                                              ; preds = %99
  %111 = load i64, ptr %8, align 8, !tbaa !15
  %112 = icmp ne i64 %111, 0
  br i1 %112, label %113, label %120

113:                                              ; preds = %110
  %114 = load ptr, ptr %4, align 8, !tbaa !6
  %115 = getelementptr inbounds nuw %struct.md5_state_s, ptr %114, i32 0, i32 2
  %116 = getelementptr inbounds [64 x i8], ptr %115, i64 0, i64 0
  %117 = load ptr, ptr %7, align 8, !tbaa !13
  %118 = load i64, ptr %8, align 8, !tbaa !15
  %119 = call ptr @memcpy.inline(ptr noundef %116, ptr noundef %117, i64 noundef %118) #5
  br label %120

120:                                              ; preds = %113, %110
  store i32 0, ptr %11, align 4
  br label %121

121:                                              ; preds = %120, %95, %27
  call void @llvm.lifetime.end.p0(i64 4, ptr %10) #5
  call void @llvm.lifetime.end.p0(i64 8, ptr %9) #5
  call void @llvm.lifetime.end.p0(i64 8, ptr %8) #5
  call void @llvm.lifetime.end.p0(i64 8, ptr %7) #5
  %122 = load i32, ptr %11, align 4
  switch i32 %122, label %124 [
    i32 0, label %123
    i32 1, label %123
  ]

123:                                              ; preds = %121, %121
  ret void

124:                                              ; preds = %121
  unreachable
}