; Function Attrs: nofree nounwind sspstrong memory(read, argmem: readwrite, inaccessiblemem: none) uwtable
define void @rb_Digest_MD5_Update(ptr noundef %0, ptr noundef %1, i64 noundef %2) local_unnamed_addr #2 {
  %4 = load i32, ptr %0, align 4, !tbaa !6
  %5 = lshr i32 %4, 3
  %6 = and i32 %5, 63
  %7 = zext nneg i32 %6 to i64
  %8 = icmp eq i64 %2, 0
  br i1 %8, label %39, label %9

9:                                                ; preds = %3
  %.tr = trunc i64 %2 to i32
  %10 = shl i32 %.tr, 3
  %11 = lshr i64 %2, 29
  %12 = getelementptr inbounds nuw i8, ptr %0, i64 4
  %13 = load i32, ptr %12, align 4, !tbaa !6
  %14 = trunc i64 %11 to i32
  %15 = add i32 %13, %14
  store i32 %15, ptr %12, align 4, !tbaa !6
  %16 = add i32 %4, %10
  store i32 %16, ptr %0, align 4, !tbaa !6
  %17 = icmp ult i32 %16, %10
  br i1 %17, label %18, label %20

18:                                               ; preds = %9
  %19 = add i32 %15, 1
  store i32 %19, ptr %12, align 4, !tbaa !6
  br label %20

20:                                               ; preds = %18, %9
  %.not = icmp eq i32 %6, 0
  br i1 %.not, label %32, label %21

21:                                               ; preds = %20
  %22 = add i64 %2, %7
  %23 = icmp ugt i64 %22, 64
  %24 = sub nuw nsw i64 64, %7
  %25 = select i1 %23, i64 %24, i64 %2
  %26 = getelementptr inbounds nuw i8, ptr %0, i64 24
  %27 = getelementptr inbounds nuw i8, ptr %26, i64 %7
  tail call void @llvm.memcpy.p0.p0.i64(ptr noundef nonnull align 1 %27, ptr noundef nonnull align 1 %1, i64 noundef range(i64 1, 0) %25, i1 noundef false) #7
  %28 = add i64 %25, %7
  %29 = icmp ugt i64 %28, 63
  br i1 %29, label %.thread, label %39

.thread:                                          ; preds = %21
  %30 = getelementptr inbounds nuw i8, ptr %1, i64 %25
  %31 = sub i64 %2, %25
  tail call fastcc void @md5_process(ptr noundef nonnull %0, ptr noundef nonnull %26)
  br label %32

32:                                               ; preds = %.thread, %20
  %.039 = phi i64 [ %2, %20 ], [ %31, %.thread ]
  %.0 = phi ptr [ %1, %20 ], [ %30, %.thread ]
  %33 = icmp ugt i64 %.039, 63
  br i1 %33, label %.lr.ph, label %._crit_edge

.lr.ph:                                           ; preds = %32, %.lr.ph
  %.248 = phi ptr [ %34, %.lr.ph ], [ %.0, %32 ]
  %.24147 = phi i64 [ %35, %.lr.ph ], [ %.039, %32 ]
  tail call fastcc void @md5_process(ptr noundef nonnull %0, ptr noundef %.248)
  %34 = getelementptr inbounds nuw i8, ptr %.248, i64 64
  %35 = add i64 %.24147, -64
  %36 = icmp ugt i64 %35, 63
  br i1 %36, label %.lr.ph, label %._crit_edge, !llvm.loop !10

._crit_edge:                                      ; preds = %.lr.ph, %32
  %.241.lcssa = phi i64 [ %.039, %32 ], [ %35, %.lr.ph ]
  %.2.lcssa = phi ptr [ %.0, %32 ], [ %34, %.lr.ph ]
  %.not44 = icmp eq i64 %.241.lcssa, 0
  br i1 %.not44, label %39, label %37

37:                                               ; preds = %._crit_edge
  %38 = getelementptr inbounds nuw i8, ptr %0, i64 24
  tail call void @llvm.memcpy.p0.p0.i64(ptr noundef nonnull align 1 %38, ptr noundef nonnull align 1 %.2.lcssa, i64 noundef range(i64 1, 0) %.241.lcssa, i1 noundef false) #7
  br label %39

39:                                               ; preds = %21, %._crit_edge, %37, %3
  ret void
}